target datalayout = "e-m:e-p270:32:32-p271:32:32-p272:64:64-i64:64-i128:128-f80:128-n8:16:32:64-S128"
target triple = "x86_64-pc-linux-gnu"

%struct.SDL_AtomicInt = type { i32 }
%struct.SDL_HIDAPI_Device = type { ptr, ptr, ptr, ptr, i16, i16, i16, ptr, %struct.SDL_GUID, i32, i32, i32, i32, i16, i16, i8, i32, i32, i32, ptr, ptr, ptr, ptr, %struct.SDL_AtomicInt, i32, ptr, i8, i8, i8, ptr, i32, ptr, ptr }
%struct.SDL_GUID = type { [16 x i8] }

@SDL_HIDAPI_devices = internal global ptr null, align 8

; Function Attrs: nounwind uwtable
define hidden ptr @HIDAPI_GetDeviceProductName(i16 noundef zeroext %0, i16 noundef zeroext %1) #0 {
  %3 = alloca i16, align 2
  %4 = alloca i16, align 2
  %5 = alloca ptr, align 8
  %6 = alloca ptr, align 8
  store i16 %0, ptr %3, align 2
  store i16 %1, ptr %4, align 2
  call void @llvm.lifetime.start.p0(i64 8, ptr %5) #7
  call void @llvm.lifetime.start.p0(i64 8, ptr %6) #7
  store ptr null, ptr %6, align 8
  call void @SDL_LockJoysticks_REAL()
  %7 = load ptr, ptr @SDL_HIDAPI_devices, align 8
  store ptr %7, ptr %5, align 8
  br label %8

8:                                                ; preds = %39, %2
  %9 = load ptr, ptr %5, align 8
  %10 = icmp ne ptr %9, null
  br i1 %10, label %11, label %43

11:                                               ; preds = %8
  %12 = load i16, ptr %3, align 2
  %13 = zext i16 %12 to i32
  %14 = load ptr, ptr %5, align 8
  %15 = getelementptr inbounds nuw %struct.SDL_HIDAPI_Device, ptr %14, i32 0, i32 4
  %16 = load i16, ptr %15, align 8
  %17 = zext i16 %16 to i32
  %18 = icmp eq i32 %13, %17
  br i1 %18, label %19, label %38

19:                                               ; preds = %11
  %20 = load i16, ptr %4, align 2
  %21 = zext i16 %20 to i32
  %22 = load ptr, ptr %5, align 8
  %23 = getelementptr inbounds nuw %struct.SDL_HIDAPI_Device, ptr %22, i32 0, i32 5
  %24 = load i16, ptr %23, align 2
  %25 = zext i16 %24 to i32
  %26 = icmp eq i32 %21, %25
  br i1 %26, label %27, label %38

27:                                               ; preds = %19
  %28 = load ptr, ptr %5, align 8
  %29 = getelementptr inbounds nuw %struct.SDL_HIDAPI_Device, ptr %28, i32 0, i32 2
  %30 = load ptr, ptr %29, align 8
  %31 = icmp ne ptr %30, null
  br i1 %31, label %32, label %37

32:                                               ; preds = %27
  %33 = load ptr, ptr %5, align 8
  %34 = getelementptr inbounds nuw %struct.SDL_HIDAPI_Device, ptr %33, i32 0, i32 2
  %35 = load ptr, ptr %34, align 8
  %36 = call noalias ptr @SDL_strdup_REAL(ptr noundef %35)
  store ptr %36, ptr %6, align 8
  br label %37

37:                                               ; preds = %32, %27
  br label %43

38:                                               ; preds = %19, %11
  br label %39

39:                                               ; preds = %38
  %40 = load ptr, ptr %5, align 8
  %41 = getelementptr inbounds nuw %struct.SDL_HIDAPI_Device, ptr %40, i32 0, i32 32
  %42 = load ptr, ptr %41, align 8
  store ptr %42, ptr %5, align 8
  br label %8, !llvm.loop !28

43:                                               ; preds = %37, %8
  call void @SDL_UnlockJoysticks_REAL()
  %44 = load ptr, ptr %6, align 8
  call void @llvm.lifetime.end.p0(i64 8, ptr %6) #7
  call void @llvm.lifetime.end.p0(i64 8, ptr %5) #7
  ret ptr %44
}